target datalayout = "e-m:e-p270:32:32-p271:32:32-p272:64:64-i64:64-i128:128-f80:128-n8:16:32:64-S128"
target triple = "x86_64-pc-linux-gnu"

%struct.UConverterToUnicodeArgs = type { i16, i8, ptr, ptr, ptr, ptr, ptr, ptr }
%struct.UConverter = type { ptr, ptr, ptr, ptr, ptr, ptr, ptr, i32, i8, i8, i8, i8, i8, [7 x i8], i32, i32, i32, i32, i8, i8, i8, i8, i8, i8, i8, i8, [8 x i8], [32 x i8], [2 x i16], [2 x i16], [32 x i16], i32, [19 x i16], [31 x i8], i8, i8, i8, i32 }

; Function Attrs: mustprogress nounwind uwtable
define internal noundef i32 @_ZL34T_UConverter_getNextUChar_UTF32_LEP23UConverterToUnicodeArgsP10UErrorCode(ptr noundef %0, ptr noundef %1) #1 {
  %3 = alloca i32, align 4
  %4 = alloca ptr, align 8
  %5 = alloca ptr, align 8
  %6 = alloca ptr, align 8
  %7 = alloca i32, align 4
  %8 = alloca i32, align 4
  %9 = alloca i32, align 4
  store ptr %0, ptr %4, align 8, !tbaa !3
  store ptr %1, ptr %5, align 8, !tbaa !3
  call void @llvm.lifetime.start.p0(i64 8, ptr %6) #6
  call void @llvm.lifetime.start.p0(i64 4, ptr %7) #6
  call void @llvm.lifetime.start.p0(i64 4, ptr %8) #6
  %10 = load ptr, ptr %4, align 8, !tbaa !3
  %11 = getelementptr inbounds nuw %struct.UConverterToUnicodeArgs, ptr %10, i32 0, i32 3
  %12 = load ptr, ptr %11, align 8, !tbaa !7
  store ptr %12, ptr %6, align 8, !tbaa !14
  %13 = load ptr, ptr %6, align 8, !tbaa !14
  %14 = load ptr, ptr %4, align 8, !tbaa !3
  %15 = getelementptr inbounds nuw %struct.UConverterToUnicodeArgs, ptr %14, i32 0, i32 4
  %16 = load ptr, ptr %15, align 8, !tbaa !17
  %17 = icmp uge ptr %13, %16
  br i1 %17, label %18, label %20

18:                                               ; preds = %2
  %19 = load ptr, ptr %5, align 8, !tbaa !3
  store i32 8, ptr %19, align 4, !tbaa !33
  store i32 65535, ptr %3, align 4
  store i32 1, ptr %9, align 4
  br label %106

20:                                               ; preds = %2
  %21 = load ptr, ptr %4, align 8, !tbaa !3
  %22 = getelementptr inbounds nuw %struct.UConverterToUnicodeArgs, ptr %21, i32 0, i32 4
  %23 = load ptr, ptr %22, align 8, !tbaa !17
  %24 = load ptr, ptr %6, align 8, !tbaa !14
  %25 = ptrtoint ptr %23 to i64
  %26 = ptrtoint ptr %24 to i64
  %27 = sub i64 %25, %26
  %28 = trunc i64 %27 to i32
  store i32 %28, ptr %8, align 4, !tbaa !25
  %29 = load i32, ptr %8, align 4, !tbaa !25
  %30 = icmp slt i32 %29, 4
  br i1 %30, label %31, label %56

31:                                               ; preds = %20
  br label %32

32:                                               ; preds = %31
  %33 = load ptr, ptr %4, align 8, !tbaa !3
  %34 = getelementptr inbounds nuw %struct.UConverterToUnicodeArgs, ptr %33, i32 0, i32 2
  %35 = load ptr, ptr %34, align 8, !tbaa !19
  %36 = getelementptr inbounds nuw %struct.UConverter, ptr %35, i32 0, i32 13
  %37 = getelementptr inbounds [7 x i8], ptr %36, i64 0, i64 0
  %38 = load ptr, ptr %6, align 8, !tbaa !14
  %39 = load i32, ptr %8, align 4, !tbaa !25
  %40 = sext i32 %39 to i64
  call void @llvm.memcpy.p0.p0.i64(ptr align 1 %37, ptr align 1 %38, i64 %40, i1 false)
  br label %41

41:                                               ; preds = %32
  br label %42

42:                                               ; preds = %41
  %43 = load i32, ptr %8, align 4, !tbaa !25
  %44 = trunc i32 %43 to i8
  %45 = load ptr, ptr %4, align 8, !tbaa !3
  %46 = getelementptr inbounds nuw %struct.UConverterToUnicodeArgs, ptr %45, i32 0, i32 2
  %47 = load ptr, ptr %46, align 8, !tbaa !19
  %48 = getelementptr inbounds nuw %struct.UConverter, ptr %47, i32 0, i32 12
  store i8 %44, ptr %48, align 8, !tbaa !20
  %49 = load ptr, ptr %6, align 8, !tbaa !14
  %50 = load i32, ptr %8, align 4, !tbaa !25
  %51 = sext i32 %50 to i64
  %52 = getelementptr inbounds i8, ptr %49, i64 %51
  %53 = load ptr, ptr %4, align 8, !tbaa !3
  %54 = getelementptr inbounds nuw %struct.UConverterToUnicodeArgs, ptr %53, i32 0, i32 3
  store ptr %52, ptr %54, align 8, !tbaa !7
  %55 = load ptr, ptr %5, align 8, !tbaa !3
  store i32 11, ptr %55, align 4, !tbaa !33
  store i32 65535, ptr %3, align 4
  store i32 1, ptr %9, align 4
  br label %106

56:                                               ; preds = %20
  %57 = load ptr, ptr %6, align 8, !tbaa !14
  %58 = getelementptr inbounds i8, ptr %57, i64 3
  %59 = load i8, ptr %58, align 1, !tbaa !27
  %60 = zext i8 %59 to i32
  %61 = shl i32 %60, 24
  %62 = load ptr, ptr %6, align 8, !tbaa !14
  %63 = getelementptr inbounds i8, ptr %62, i64 2
  %64 = load i8, ptr %63, align 1, !tbaa !27
  %65 = zext i8 %64 to i32
  %66 = shl i32 %65, 16
  %67 = or i32 %61, %66
  %68 = load ptr, ptr %6, align 8, !tbaa !14
  %69 = getelementptr inbounds i8, ptr %68, i64 1
  %70 = load i8, ptr %69, align 1, !tbaa !27
  %71 = zext i8 %70 to i32
  %72 = shl i32 %71, 8
  %73 = or i32 %67, %72
  %74 = load ptr, ptr %6, align 8, !tbaa !14
  %75 = getelementptr inbounds i8, ptr %74, i64 0
  %76 = load i8, ptr %75, align 1, !tbaa !27
  %77 = zext i8 %76 to i32
  %78 = or i32 %73, %77
  store i32 %78, ptr %7, align 4, !tbaa !25
  %79 = load ptr, ptr %6, align 8, !tbaa !14
  %80 = getelementptr inbounds i8, ptr %79, i64 4
  %81 = load ptr, ptr %4, align 8, !tbaa !3
  %82 = getelementptr inbounds nuw %struct.UConverterToUnicodeArgs, ptr %81, i32 0, i32 3
  store ptr %80, ptr %82, align 8, !tbaa !7
  %83 = load i32, ptr %7, align 4, !tbaa !25
  %84 = icmp ule i32 %83, 1114111
  br i1 %84, label %85, label %91

85:                                               ; preds = %56
  %86 = load i32, ptr %7, align 4, !tbaa !25
  %87 = and i32 %86, -2048
  %88 = icmp eq i32 %87, 55296
  br i1 %88, label %91, label %89

89:                                               ; preds = %85
  %90 = load i32, ptr %7, align 4, !tbaa !25
  store i32 %90, ptr %3, align 4
  store i32 1, ptr %9, align 4
  br label %106

91:                                               ; preds = %85, %56
  br label %92

92:                                               ; preds = %91
  %93 = load ptr, ptr %4, align 8, !tbaa !3
  %94 = getelementptr inbounds nuw %struct.UConverterToUnicodeArgs, ptr %93, i32 0, i32 2
  %95 = load ptr, ptr %94, align 8, !tbaa !19
  %96 = getelementptr inbounds nuw %struct.UConverter, ptr %95, i32 0, i32 13
  %97 = getelementptr inbounds [7 x i8], ptr %96, i64 0, i64 0
  %98 = load ptr, ptr %6, align 8, !tbaa !14
  call void @llvm.memcpy.p0.p0.i64(ptr align 1 %97, ptr align 1 %98, i64 4, i1 false)
  br label %99

99:                                               ; preds = %92
  br label %100

100:                                              ; preds = %99
  %101 = load ptr, ptr %4, align 8, !tbaa !3
  %102 = getelementptr inbounds nuw %struct.UConverterToUnicodeArgs, ptr %101, i32 0, i32 2
  %103 = load ptr, ptr %102, align 8, !tbaa !19
  %104 = getelementptr inbounds nuw %struct.UConverter, ptr %103, i32 0, i32 12
  store i8 4, ptr %104, align 8, !tbaa !20
  %105 = load ptr, ptr %5, align 8, !tbaa !3
  store i32 12, ptr %105, align 4, !tbaa !33
  store i32 65535, ptr %3, align 4
  store i32 1, ptr %9, align 4
  br label %106

106:                                              ; preds = %100, %89, %42, %18
  call void @llvm.lifetime.end.p0(i64 4, ptr %8) #6
  call void @llvm.lifetime.end.p0(i64 4, ptr %7) #6
  call void @llvm.lifetime.end.p0(i64 8, ptr %6) #6
  %107 = load i32, ptr %3, align 4
  ret i32 %107
}